target datalayout = "e-m:e-p270:32:32-p271:32:32-p272:64:64-i64:64-i128:128-f80:128-n8:16:32:64-S128"
target triple = "x86_64-pc-linux-gnu"

%struct.rb_data_type_struct = type { ptr, %struct.anon.12, ptr, ptr, i64 }
%struct.anon.12 = type { ptr, ptr, ptr, ptr, [1 x ptr] }
%struct.ASTNodeData = type { i64, ptr }
%struct.rb_ast_struct = type { ptr, %struct.rb_ast_body_struct }
%struct.rb_ast_body_struct = type { ptr, ptr, i32, i8 }

@rb_node_type = internal constant %struct.rb_data_type_struct { ptr @.str.24, %struct.anon.12 { ptr @node_gc_mark, ptr inttoptr (i64 -1 to ptr), ptr @node_memsize, ptr null, [1 x ptr] zeroinitializer }, ptr null, ptr null, i64 1 }, align 8

; Function Attrs: nounwind sspstrong uwtable
define internal i64 @ast_node_script_lines(ptr noundef %0, i64 noundef %1) #0 {
  %3 = alloca ptr, align 8
  %4 = alloca i64, align 8
  %5 = alloca ptr, align 8
  %6 = alloca ptr, align 8
  %7 = alloca ptr, align 8
  store ptr %0, ptr %3, align 8, !tbaa !7
  store i64 %1, ptr %4, align 8, !tbaa !12
  call void @llvm.lifetime.start.p0(i64 8, ptr %5) #16
  call void @llvm.lifetime.start.p0(i64 8, ptr %6) #16
  %8 = load i64, ptr %4, align 8, !tbaa !12
  %9 = call ptr @rb_check_typeddata(i64 noundef %8, ptr noundef @rb_node_type)
  store ptr %9, ptr %5, align 8, !tbaa !44
  %10 = load ptr, ptr %5, align 8, !tbaa !44
  %11 = getelementptr inbounds nuw %struct.ASTNodeData, ptr %10, i32 0, i32 0
  %12 = load i64, ptr %11, align 8, !tbaa !54
  %13 = call ptr @rb_ruby_ast_data_get(i64 noundef %12)
  store ptr %13, ptr %6, align 8, !tbaa !55
  call void @llvm.lifetime.start.p0(i64 8, ptr %7) #16
  %14 = load ptr, ptr %6, align 8, !tbaa !55
  %15 = getelementptr inbounds nuw %struct.rb_ast_struct, ptr %14, i32 0, i32 1
  %16 = getelementptr inbounds nuw %struct.rb_ast_body_struct, ptr %15, i32 0, i32 1
  %17 = load ptr, ptr %16, align 8, !tbaa !91
  store ptr %17, ptr %7, align 8, !tbaa !67
  %18 = load ptr, ptr %7, align 8, !tbaa !67
  %19 = call i64 @rb_parser_build_script_lines_from(ptr noundef %18)
  call void @llvm.lifetime.end.p0(i64 8, ptr %7) #16
  call void @llvm.lifetime.end.p0(i64 8, ptr %6) #16
  call void @llvm.lifetime.end.p0(i64 8, ptr %5) #16
  ret i64 %19
}