; Function Attrs: nounwind sspstrong uwtable
define internal i64 @ast_node_script_lines(ptr readnone captures(none) %0, i64 noundef %1) #0 {
  %3 = tail call ptr @rb_check_typeddata(i64 noundef %1, ptr noundef nonnull @rb_node_type) #11
  %4 = load i64, ptr %3, align 8, !tbaa !70
  %5 = tail call ptr @rb_ruby_ast_data_get(i64 noundef %4) #11
  %6 = getelementptr inbounds nuw i8, ptr %5, i64 16
  %7 = load ptr, ptr %6, align 8, !tbaa !106
  %8 = tail call i64 @rb_parser_build_script_lines_from(ptr noundef %7) #11
  ret i64 %8
}